; Function Attrs: mustprogress uwtable
define void @_ZN9grpc_core19ChannelStackBuilderC2EPKc23grpc_channel_stack_typeRKNS_11ChannelArgsE(ptr noundef nonnull align 8 dereferenceable(88) %this, ptr noundef %name, i32 noundef %type, ptr noundef nonnull align 8 dereferenceable(8) %channel_args) unnamed_addr #3 align 2 personality ptr @__gxx_personality_v0 {
entry:
  store ptr getelementptr inbounds ({ [4 x ptr] }, ptr @_ZTVN9grpc_core19ChannelStackBuilderE, i64 0, i32 0, i64 2), ptr %this, align 8
  %name_ = getelementptr inbounds i8, ptr %this, i64 8
  store ptr %name, ptr %name_, align 8
  %type_ = getelementptr inbounds i8, ptr %this, i64 16
  store i32 %type, ptr %type_, align 8
  %target_ = getelementptr inbounds i8, ptr %this, i64 24
  tail call void @_ZN9grpc_core19ChannelStackBuilder14unknown_targetB5cxx11Ev(ptr nonnull sret(%"class.std::__cxx11::basic_string") align 8 %target_)
  %args_ = getelementptr inbounds i8, ptr %this, i64 56
  invoke void @_ZN9grpc_core11ChannelArgsC1ERKS0_(ptr noundef nonnull align 8 dereferenceable(8) %args_, ptr noundef nonnull align 8 dereferenceable(8) %channel_args)
          to label %invoke.cont unwind label %lpad

invoke.cont:                                      ; preds = %entry
  %stack_ = getelementptr inbounds i8, ptr %this, i64 64
  tail call void @llvm.memset.p0.i64(ptr noundef nonnull align 8 dereferenceable(24) %stack_, i8 0, i64 24, i1 false)
  ret void

lpad:                                             ; preds = %entry
  %0 = landingpad { ptr, i32 }
          cleanup
  tail call void @_ZNSt7__cxx1112basic_stringIcSt11char_traitsIcESaIcEED1Ev(ptr noundef nonnull align 8 dereferenceable(32) %target_) #13
  resume { ptr, i32 } %0
}